target datalayout = "e-m:e-p270:32:32-p271:32:32-p272:64:64-i64:64-i128:128-f80:128-n8:16:32:64-S128"
target triple = "x86_64-pc-linux-gnu"

%struct.strbuf = type { i64, i64, ptr }
%struct.object_id = type { [32 x i8], i32 }

@the_repository = external global ptr, align 8
@.str.29 = private unnamed_addr constant [5 x i8] c"HEAD\00", align 1
@.str.46 = private unnamed_addr constant [1 x i8] zeroinitializer, align 1
@.str.51 = private unnamed_addr constant [17 x i8] c"CHERRY_PICK_HEAD\00", align 1
@.str.53 = private unnamed_addr constant [12 x i8] c"REVERT_HEAD\00", align 1
@__const.sequencer_rollback.buf = private unnamed_addr constant %struct.strbuf { i64 0, i64 0, ptr @strbuf_slopbuf }, align 8
@.str.62 = private unnamed_addr constant [2 x i8] c"r\00", align 1
@.str.63 = private unnamed_addr constant [17 x i8] c"cannot open '%s'\00", align 1
@.str.64 = private unnamed_addr constant [21 x i8] c"cannot read '%s': %s\00", align 1
@.str.65 = private unnamed_addr constant [23 x i8] c"unexpected end of file\00", align 1
@.str.66 = private unnamed_addr constant [49 x i8] c"stored pre-cherry-pick HEAD file '%s' is corrupt\00", align 1
@.str.67 = private unnamed_addr constant [42 x i8] c"cannot abort from a branch yet to be born\00", align 1
@.str.68 = private unnamed_addr constant [61 x i8] c"You seem to have moved HEAD. Not rewinding, check your HEAD!\00", align 1
@git_gettext_enabled = external global i32, align 4
@git_path_head_file.ret = internal global ptr null, align 8
@.str.172 = private unnamed_addr constant [15 x i8] c"sequencer/head\00", align 1
@.str.173 = private unnamed_addr constant [37 x i8] c"no cherry-pick or revert in progress\00", align 1
@.str.174 = private unnamed_addr constant [20 x i8] c"cannot resolve HEAD\00", align 1
@is_null_oid.null_hash = internal constant [32 x i8] zeroinitializer, align 16

; Function Attrs: inlinehint nounwind uwtable
define internal i32 @is_null_oid(ptr noundef %0) #1 {
  %2 = alloca ptr, align 8
  store ptr %0, ptr %2, align 8, !tbaa !84
  %3 = load ptr, ptr %2, align 8, !tbaa !84
  %4 = getelementptr inbounds nuw %struct.object_id, ptr %3, i32 0, i32 0
  %5 = getelementptr inbounds [32 x i8], ptr %4, i64 0, i64 0
  %6 = call i32 @memcmp(ptr noundef %5, ptr noundef @is_null_oid.null_hash, i64 noundef 32) #12
  %7 = icmp ne i32 %6, 0
  %8 = xor i1 %7, true
  %9 = zext i1 %8 to i32
  ret i32 %9
}

; Function Attrs: inlinehint nounwind uwtable
define internal i32 @const_error() #1 {
  ret i32 -1
}

; Function Attrs: inlinehint nounwind uwtable
define internal ptr @_(ptr noundef %0) #1 {
  %2 = alloca ptr, align 8
  %3 = alloca ptr, align 8
  store ptr %0, ptr %3, align 8, !tbaa !4
  %4 = load ptr, ptr %3, align 8, !tbaa !4
  %5 = load i8, ptr %4, align 1, !tbaa !30
  %6 = icmp ne i8 %5, 0
  br i1 %6, label %8, label %7

7:                                                ; preds = %1
  store ptr @.str.46, ptr %2, align 8
  br label %16

8:                                                ; preds = %1
  %9 = load i32, ptr @git_gettext_enabled, align 4, !tbaa !29
  %10 = icmp ne i32 %9, 0
  br i1 %10, label %13, label %11

11:                                               ; preds = %8
  %12 = load ptr, ptr %3, align 8, !tbaa !4
  store ptr %12, ptr %2, align 8
  br label %16

13:                                               ; preds = %8
  %14 = load ptr, ptr %3, align 8, !tbaa !4
  %15 = call ptr @dcgettext(ptr noundef null, ptr noundef %14, i32 noundef 5) #11
  store ptr %15, ptr %2, align 8
  br label %16

16:                                               ; preds = %13, %11, %7
  %17 = load ptr, ptr %2, align 8
  ret ptr %17
}

; Function Attrs: nounwind uwtable
define internal i32 @rollback_single_pick(ptr noundef %0) #0 {
  %2 = alloca i32, align 4
  %3 = alloca ptr, align 8
  %4 = alloca %struct.object_id, align 4
  %5 = alloca i32, align 4
  store ptr %0, ptr %3, align 8, !tbaa !9
  call void @llvm.lifetime.start.p0(i64 36, ptr %4) #11
  %6 = load ptr, ptr %3, align 8, !tbaa !9
  %7 = call ptr @get_main_ref_store(ptr noundef %6)
  %8 = call i32 @refs_ref_exists(ptr noundef %7, ptr noundef @.str.51)
  %9 = icmp ne i32 %8, 0
  br i1 %9, label %19, label %10

10:                                               ; preds = %1
  %11 = load ptr, ptr %3, align 8, !tbaa !9
  %12 = call ptr @get_main_ref_store(ptr noundef %11)
  %13 = call i32 @refs_ref_exists(ptr noundef %12, ptr noundef @.str.53)
  %14 = icmp ne i32 %13, 0
  br i1 %14, label %19, label %15

15:                                               ; preds = %10
  %16 = call ptr @_(ptr noundef @.str.173)
  %17 = call i32 (ptr, ...) @error(ptr noundef %16)
  %18 = call i32 @const_error()
  store i32 %18, ptr %2, align 4
  store i32 1, ptr %5, align 4
  br label %37

19:                                               ; preds = %10, %1
  %20 = load ptr, ptr @the_repository, align 8, !tbaa !9
  %21 = call ptr @get_main_ref_store(ptr noundef %20)
  %22 = call i32 @refs_read_ref_full(ptr noundef %21, ptr noundef @.str.29, i32 noundef 0, ptr noundef %4, ptr noundef null)
  %23 = icmp ne i32 %22, 0
  br i1 %23, label %24, label %28

24:                                               ; preds = %19
  %25 = call ptr @_(ptr noundef @.str.174)
  %26 = call i32 (ptr, ...) @error(ptr noundef %25)
  %27 = call i32 @const_error()
  store i32 %27, ptr %2, align 4
  store i32 1, ptr %5, align 4
  br label %37

28:                                               ; preds = %19
  %29 = call i32 @is_null_oid(ptr noundef %4)
  %30 = icmp ne i32 %29, 0
  br i1 %30, label %31, label %35

31:                                               ; preds = %28
  %32 = call ptr @_(ptr noundef @.str.67)
  %33 = call i32 (ptr, ...) @error(ptr noundef %32)
  %34 = call i32 @const_error()
  store i32 %34, ptr %2, align 4
  store i32 1, ptr %5, align 4
  br label %37

35:                                               ; preds = %28
  %36 = call i32 @reset_merge(ptr noundef %4)
  store i32 %36, ptr %2, align 4
  store i32 1, ptr %5, align 4
  br label %37

37:                                               ; preds = %35, %31, %24, %15
  call void @llvm.lifetime.end.p0(i64 36, ptr %4) #11
  %38 = load i32, ptr %2, align 4
  ret i32 %38
}

; Function Attrs: nounwind uwtable
define internal ptr @git_path_head_file() #0 {
  %1 = load ptr, ptr @git_path_head_file.ret, align 8, !tbaa !4
  %2 = icmp ne ptr %1, null
  br i1 %2, label %5, label %3

3:                                                ; preds = %0
  %4 = call ptr (ptr, ...) @git_pathdup(ptr noundef @.str.172)
  store ptr %4, ptr @git_path_head_file.ret, align 8, !tbaa !4
  br label %5

5:                                                ; preds = %3, %0
  %6 = load ptr, ptr @git_path_head_file.ret, align 8, !tbaa !4
  ret ptr %6
}

; Function Attrs: nounwind uwtable
define dso_local i32 @sequencer_rollback(ptr noundef %0, ptr noundef %1) #0 {
  %3 = alloca i32, align 4
  %4 = alloca ptr, align 8
  %5 = alloca ptr, align 8
  %6 = alloca ptr, align 8
  %7 = alloca %struct.object_id, align 4
  %8 = alloca %struct.strbuf, align 8
  %9 = alloca ptr, align 8
  %10 = alloca i32, align 4
  store ptr %0, ptr %4, align 8, !tbaa !9
  store ptr %1, ptr %5, align 8, !tbaa !13
  call void @llvm.lifetime.start.p0(i64 8, ptr %6) #11
  call void @llvm.lifetime.start.p0(i64 36, ptr %7) #11
  call void @llvm.lifetime.start.p0(i64 24, ptr %8) #11
  call void @llvm.memcpy.p0.p0.i64(ptr align 8 %8, ptr align 8 @__const.sequencer_rollback.buf, i64 24, i1 false)
  call void @llvm.lifetime.start.p0(i64 8, ptr %9) #11
  %11 = call ptr @git_path_head_file()
  %12 = call ptr @git_fopen(ptr noundef %11, ptr noundef @.str.62)
  store ptr %12, ptr %6, align 8, !tbaa !178
  %13 = load ptr, ptr %6, align 8, !tbaa !178
  %14 = icmp ne ptr %13, null
  br i1 %14, label %22, label %15

15:                                               ; preds = %2
  %16 = call ptr @__errno_location() #14
  %17 = load i32, ptr %16, align 4, !tbaa !29
  %18 = icmp eq i32 %17, 2
  br i1 %18, label %19, label %22

19:                                               ; preds = %15
  %20 = load ptr, ptr %4, align 8, !tbaa !9
  %21 = call i32 @rollback_single_pick(ptr noundef %20)
  store i32 %21, ptr %3, align 4
  store i32 1, ptr %10, align 4
  br label %90

22:                                               ; preds = %15, %2
  %23 = load ptr, ptr %6, align 8, !tbaa !178
  %24 = icmp ne ptr %23, null
  br i1 %24, label %30, label %25

25:                                               ; preds = %22
  %26 = call ptr @_(ptr noundef @.str.63)
  %27 = call ptr @git_path_head_file()
  %28 = call i32 (ptr, ...) @error_errno(ptr noundef %26, ptr noundef %27)
  %29 = call i32 @const_error()
  store i32 %29, ptr %3, align 4
  store i32 1, ptr %10, align 4
  br label %90

30:                                               ; preds = %22
  %31 = load ptr, ptr %6, align 8, !tbaa !178
  %32 = call i32 @strbuf_getline_lf(ptr noundef %8, ptr noundef %31)
  %33 = icmp ne i32 %32, 0
  br i1 %33, label %34, label %52

34:                                               ; preds = %30
  %35 = call ptr @_(ptr noundef @.str.64)
  %36 = call ptr @git_path_head_file()
  %37 = load ptr, ptr %6, align 8, !tbaa !178
  %38 = call i32 @ferror(ptr noundef %37) #11
  %39 = icmp ne i32 %38, 0
  br i1 %39, label %40, label %44

40:                                               ; preds = %34
  %41 = call ptr @__errno_location() #14
  %42 = load i32, ptr %41, align 4, !tbaa !29
  %43 = call ptr @strerror(i32 noundef %42) #11
  br label %46

44:                                               ; preds = %34
  %45 = call ptr @_(ptr noundef @.str.65)
  br label %46

46:                                               ; preds = %44, %40
  %47 = phi ptr [ %43, %40 ], [ %45, %44 ]
  %48 = call i32 (ptr, ...) @error(ptr noundef %35, ptr noundef %36, ptr noundef %47)
  %49 = call i32 @const_error()
  %50 = load ptr, ptr %6, align 8, !tbaa !178
  %51 = call i32 @fclose(ptr noundef %50)
  br label %89

52:                                               ; preds = %30
  %53 = load ptr, ptr %6, align 8, !tbaa !178
  %54 = call i32 @fclose(ptr noundef %53)
  %55 = getelementptr inbounds nuw %struct.strbuf, ptr %8, i32 0, i32 2
  %56 = load ptr, ptr %55, align 8, !tbaa !37
  %57 = call i32 @parse_oid_hex(ptr noundef %56, ptr noundef %7, ptr noundef %9)
  %58 = icmp ne i32 %57, 0
  br i1 %58, label %64, label %59

59:                                               ; preds = %52
  %60 = load ptr, ptr %9, align 8, !tbaa !4
  %61 = load i8, ptr %60, align 1, !tbaa !30
  %62 = sext i8 %61 to i32
  %63 = icmp ne i32 %62, 0
  br i1 %63, label %64, label %69

64:                                               ; preds = %59, %52
  %65 = call ptr @_(ptr noundef @.str.66)
  %66 = call ptr @git_path_head_file()
  %67 = call i32 (ptr, ...) @error(ptr noundef %65, ptr noundef %66)
  %68 = call i32 @const_error()
  br label %89

69:                                               ; preds = %59
  %70 = call i32 @is_null_oid(ptr noundef %7)
  %71 = icmp ne i32 %70, 0
  br i1 %71, label %72, label %76

72:                                               ; preds = %69
  %73 = call ptr @_(ptr noundef @.str.67)
  %74 = call i32 (ptr, ...) @error(ptr noundef %73)
  %75 = call i32 @const_error()
  br label %89

76:                                               ; preds = %69
  %77 = call i32 @rollback_is_safe()
  %78 = icmp ne i32 %77, 0
  br i1 %78, label %81, label %79

79:                                               ; preds = %76
  %80 = call ptr @_(ptr noundef @.str.68)
  call void (ptr, ...) @warning(ptr noundef %80)
  br label %86

81:                                               ; preds = %76
  %82 = call i32 @reset_merge(ptr noundef %7)
  %83 = icmp ne i32 %82, 0
  br i1 %83, label %84, label %85

84:                                               ; preds = %81
  br label %89

85:                                               ; preds = %81
  br label %86

86:                                               ; preds = %85, %79
  call void @strbuf_release(ptr noundef %8)
  %87 = load ptr, ptr %5, align 8, !tbaa !13
  %88 = call i32 @sequencer_remove_state(ptr noundef %87)
  store i32 %88, ptr %3, align 4
  store i32 1, ptr %10, align 4
  br label %90

89:                                               ; preds = %84, %72, %64, %46
  call void @strbuf_release(ptr noundef %8)
  store i32 -1, ptr %3, align 4
  store i32 1, ptr %10, align 4
  br label %90

90:                                               ; preds = %89, %86, %25, %19
  call void @llvm.lifetime.end.p0(i64 8, ptr %9) #11
  call void @llvm.lifetime.end.p0(i64 24, ptr %8) #11
  call void @llvm.lifetime.end.p0(i64 36, ptr %7) #11
  call void @llvm.lifetime.end.p0(i64 8, ptr %6) #11
  %91 = load i32, ptr %3, align 4
  ret i32 %91
}