; Function Attrs: nounwind uwtable
define dso_local i32 @sequencer_rollback(ptr noundef %0, ptr noundef readonly captures(none) %1) local_unnamed_addr #0 {
  %3 = alloca %struct.child_process, align 8
  %4 = alloca %struct.object_id, align 4
  %5 = alloca %struct.object_id, align 4
  %6 = alloca %struct.strbuf, align 8
  %7 = alloca ptr, align 8
  call void @llvm.lifetime.start.p0(i64 36, ptr nonnull %5) #20
  call void @llvm.lifetime.start.p0(i64 24, ptr nonnull %6) #20
  call void @llvm.memcpy.p0.p0.i64(ptr noundef nonnull align 8 dereferenceable(24) %6, ptr noundef nonnull align 8 dereferenceable(24) @__const.make_script_with_merges.label_from_message, i64 24, i1 false)
  call void @llvm.lifetime.start.p0(i64 8, ptr nonnull %7) #20
  %8 = load ptr, ptr @git_path_head_file.ret, align 8, !tbaa !4
  %.not.i = icmp eq ptr %8, null
  br i1 %.not.i, label %9, label %git_path_head_file.exit

9:                                                ; preds = %2
  %10 = tail call ptr (ptr, ...) @git_pathdup(ptr noundef nonnull @.str.172)
  store ptr %10, ptr @git_path_head_file.ret, align 8, !tbaa !4
  br label %git_path_head_file.exit

git_path_head_file.exit:                          ; preds = %2, %9
  %11 = phi ptr [ %10, %9 ], [ %8, %2 ]
  %12 = tail call ptr @git_fopen(ptr noundef %11, ptr noundef nonnull @.str.62) #20
  %.not = icmp eq ptr %12, null
  br i1 %.not, label %13, label %.critedge

13:                                               ; preds = %git_path_head_file.exit
  %14 = tail call ptr @__errno_location() #23
  %15 = load i32, ptr %14, align 4, !tbaa !21
  %16 = icmp eq i32 %15, 2
  br i1 %16, label %17, label %49

17:                                               ; preds = %13
  call void @llvm.lifetime.start.p0(i64 36, ptr nonnull %4) #20
  %18 = tail call ptr @get_main_ref_store(ptr noundef %0) #20
  %19 = tail call i32 @refs_ref_exists(ptr noundef %18, ptr noundef nonnull @.str.51) #20
  %.not.i16 = icmp eq i32 %19, 0
  br i1 %.not.i16, label %20, label %28

20:                                               ; preds = %17
  %21 = tail call ptr @get_main_ref_store(ptr noundef %0) #20
  %22 = tail call i32 @refs_ref_exists(ptr noundef %21, ptr noundef nonnull @.str.53) #20
  %.not2.i = icmp eq i32 %22, 0
  br i1 %.not2.i, label %23, label %28

23:                                               ; preds = %20
  %24 = load i32, ptr @git_gettext_enabled, align 4, !tbaa !21
  %.not4.i.i = icmp eq i32 %24, 0
  br i1 %.not4.i.i, label %_.exit.i, label %25

25:                                               ; preds = %23
  %26 = tail call ptr @dcgettext(ptr noundef null, ptr noundef nonnull @.str.173, i32 noundef 5) #20
  br label %_.exit.i

_.exit.i:                                         ; preds = %25, %23
  %.0.i.i = phi ptr [ %26, %25 ], [ @.str.173, %23 ]
  %27 = tail call i32 (ptr, ...) @error(ptr noundef %.0.i.i) #20
  br label %rollback_single_pick.exit

28:                                               ; preds = %20, %17
  %29 = load ptr, ptr @the_repository, align 8, !tbaa !9
  %30 = tail call ptr @get_main_ref_store(ptr noundef %29) #20
  %31 = call i32 @refs_read_ref_full(ptr noundef %30, ptr noundef nonnull @.str.29, i32 noundef 0, ptr noundef nonnull %4, ptr noundef null) #20
  %.not3.i = icmp eq i32 %31, 0
  br i1 %.not3.i, label %37, label %32

32:                                               ; preds = %28
  %33 = load i32, ptr @git_gettext_enabled, align 4, !tbaa !21
  %.not4.i5.i = icmp eq i32 %33, 0
  br i1 %.not4.i5.i, label %_.exit7.i, label %34

34:                                               ; preds = %32
  %35 = call ptr @dcgettext(ptr noundef null, ptr noundef nonnull @.str.174, i32 noundef 5) #20
  br label %_.exit7.i

_.exit7.i:                                        ; preds = %34, %32
  %.0.i6.i = phi ptr [ %35, %34 ], [ @.str.174, %32 ]
  %36 = call i32 (ptr, ...) @error(ptr noundef %.0.i6.i) #20
  br label %rollback_single_pick.exit

37:                                               ; preds = %28
  %bcmp.i.i = call i32 @bcmp(ptr noundef nonnull readonly dereferenceable(32) %4, ptr noundef nonnull dereferenceable(32) @is_null_oid.null_hash, i64 32)
  %.not.i.not.i = icmp eq i32 %bcmp.i.i, 0
  br i1 %.not.i.not.i, label %38, label %43

38:                                               ; preds = %37
  %39 = load i32, ptr @git_gettext_enabled, align 4, !tbaa !21
  %.not4.i8.i = icmp eq i32 %39, 0
  br i1 %.not4.i8.i, label %_.exit10.i, label %40

40:                                               ; preds = %38
  %41 = call ptr @dcgettext(ptr noundef null, ptr noundef nonnull @.str.67, i32 noundef 5) #20
  br label %_.exit10.i

_.exit10.i:                                       ; preds = %40, %38
  %.0.i9.i = phi ptr [ %41, %40 ], [ @.str.67, %38 ]
  %42 = call i32 (ptr, ...) @error(ptr noundef %.0.i9.i) #20
  br label %rollback_single_pick.exit

43:                                               ; preds = %37
  call void @llvm.lifetime.start.p0(i64 120, ptr nonnull %3) #20
  call void @llvm.memcpy.p0.p0.i64(ptr noundef nonnull align 8 dereferenceable(120) %3, ptr noundef nonnull align 8 dereferenceable(120) @__const.do_merge.cmd, i64 120, i1 false)
  %44 = getelementptr inbounds nuw i8, ptr %3, i64 104
  store i16 8, ptr %44, align 8
  call void (ptr, ...) @strvec_pushl(ptr noundef nonnull %3, ptr noundef nonnull @.str.130, ptr noundef nonnull @.str.177, ptr noundef null) #20
  %bcmp.i.i.i = call i32 @bcmp(ptr noundef nonnull readonly dereferenceable(32) %4, ptr noundef nonnull dereferenceable(32) @is_null_oid.null_hash, i64 32)
  %.not.i.not.i.i = icmp eq i32 %bcmp.i.i.i, 0
  br i1 %.not.i.not.i.i, label %reset_merge.exit.i, label %45

45:                                               ; preds = %43
  %46 = call ptr @oid_to_hex(ptr noundef nonnull %4) #20
  %47 = call ptr @strvec_push(ptr noundef nonnull %3, ptr noundef %46) #20
  br label %reset_merge.exit.i

reset_merge.exit.i:                               ; preds = %45, %43
  %48 = call i32 @run_command(ptr noundef nonnull %3) #20
  call void @llvm.lifetime.end.p0(i64 120, ptr nonnull %3) #20
  br label %rollback_single_pick.exit

rollback_single_pick.exit:                        ; preds = %_.exit.i, %_.exit7.i, %_.exit10.i, %reset_merge.exit.i
  %.0.i = phi i32 [ -1, %_.exit7.i ], [ -1, %_.exit10.i ], [ %48, %reset_merge.exit.i ], [ -1, %_.exit.i ]
  call void @llvm.lifetime.end.p0(i64 36, ptr nonnull %4) #20
  br label %113

49:                                               ; preds = %13
  %50 = load i32, ptr @git_gettext_enabled, align 4, !tbaa !21
  %.not4.i = icmp eq i32 %50, 0
  br i1 %.not4.i, label %_.exit, label %51

51:                                               ; preds = %49
  %52 = tail call ptr @dcgettext(ptr noundef null, ptr noundef nonnull @.str.63, i32 noundef 5) #20
  br label %_.exit

_.exit:                                           ; preds = %49, %51
  %.0.i17 = phi ptr [ %52, %51 ], [ @.str.63, %49 ]
  %53 = load ptr, ptr @git_path_head_file.ret, align 8, !tbaa !4
  %.not.i18 = icmp eq ptr %53, null
  br i1 %.not.i18, label %54, label %git_path_head_file.exit19

54:                                               ; preds = %_.exit
  %55 = tail call ptr (ptr, ...) @git_pathdup(ptr noundef nonnull @.str.172)
  store ptr %55, ptr @git_path_head_file.ret, align 8, !tbaa !4
  br label %git_path_head_file.exit19

git_path_head_file.exit19:                        ; preds = %_.exit, %54
  %56 = phi ptr [ %55, %54 ], [ %53, %_.exit ]
  %57 = tail call i32 (ptr, ...) @error_errno(ptr noundef %.0.i17, ptr noundef %56) #20
  br label %113

.critedge:                                        ; preds = %git_path_head_file.exit
  %58 = call i32 @strbuf_getline_lf(ptr noundef nonnull %6, ptr noundef nonnull %12) #20
  %.not9 = icmp eq i32 %58, 0
  br i1 %.not9, label %79, label %59

59:                                               ; preds = %.critedge
  %60 = load i32, ptr @git_gettext_enabled, align 4, !tbaa !21
  %.not4.i20 = icmp eq i32 %60, 0
  br i1 %.not4.i20, label %_.exit22, label %61

61:                                               ; preds = %59
  %62 = call ptr @dcgettext(ptr noundef null, ptr noundef nonnull @.str.64, i32 noundef 5) #20
  br label %_.exit22

_.exit22:                                         ; preds = %59, %61
  %.0.i21 = phi ptr [ %62, %61 ], [ @.str.64, %59 ]
  %63 = load ptr, ptr @git_path_head_file.ret, align 8, !tbaa !4
  %.not.i23 = icmp eq ptr %63, null
  br i1 %.not.i23, label %64, label %git_path_head_file.exit24

64:                                               ; preds = %_.exit22
  %65 = call ptr (ptr, ...) @git_pathdup(ptr noundef nonnull @.str.172)
  store ptr %65, ptr @git_path_head_file.ret, align 8, !tbaa !4
  br label %git_path_head_file.exit24

git_path_head_file.exit24:                        ; preds = %_.exit22, %64
  %66 = phi ptr [ %65, %64 ], [ %63, %_.exit22 ]
  %67 = call i32 @ferror(ptr noundef nonnull %12) #20
  %.not15 = icmp eq i32 %67, 0
  br i1 %.not15, label %72, label %68

68:                                               ; preds = %git_path_head_file.exit24
  %69 = tail call ptr @__errno_location() #23
  %70 = load i32, ptr %69, align 4, !tbaa !21
  %71 = call ptr @strerror(i32 noundef %70) #20
  br label %_.exit27

72:                                               ; preds = %git_path_head_file.exit24
  %73 = load i32, ptr @git_gettext_enabled, align 4, !tbaa !21
  %.not4.i25 = icmp eq i32 %73, 0
  br i1 %.not4.i25, label %_.exit27, label %74

74:                                               ; preds = %72
  %75 = call ptr @dcgettext(ptr noundef null, ptr noundef nonnull @.str.65, i32 noundef 5) #20
  br label %_.exit27

_.exit27:                                         ; preds = %74, %72, %68
  %76 = phi ptr [ %71, %68 ], [ %75, %74 ], [ @.str.65, %72 ]
  %77 = call i32 (ptr, ...) @error(ptr noundef %.0.i21, ptr noundef %66, ptr noundef %76) #20
  %78 = call i32 @fclose(ptr noundef nonnull %12)
  br label %112

79:                                               ; preds = %.critedge
  %80 = call i32 @fclose(ptr noundef nonnull %12)
  %81 = getelementptr inbounds nuw i8, ptr %6, i64 16
  %82 = load ptr, ptr %81, align 8, !tbaa !31
  %83 = call i32 @parse_oid_hex(ptr noundef %82, ptr noundef nonnull %5, ptr noundef nonnull %7) #20
  %.not10 = icmp eq i32 %83, 0
  br i1 %.not10, label %84, label %87

84:                                               ; preds = %79
  %85 = load ptr, ptr %7, align 8, !tbaa !4
  %86 = load i8, ptr %85, align 1, !tbaa !24
  %.not11 = icmp eq i8 %86, 0
  br i1 %.not11, label %96, label %87

87:                                               ; preds = %84, %79
  %88 = load i32, ptr @git_gettext_enabled, align 4, !tbaa !21
  %.not4.i28 = icmp eq i32 %88, 0
  br i1 %.not4.i28, label %_.exit30, label %89

89:                                               ; preds = %87
  %90 = call ptr @dcgettext(ptr noundef null, ptr noundef nonnull @.str.66, i32 noundef 5) #20
  br label %_.exit30

_.exit30:                                         ; preds = %87, %89
  %.0.i29 = phi ptr [ %90, %89 ], [ @.str.66, %87 ]
  %91 = load ptr, ptr @git_path_head_file.ret, align 8, !tbaa !4
  %.not.i31 = icmp eq ptr %91, null
  br i1 %.not.i31, label %92, label %git_path_head_file.exit32

92:                                               ; preds = %_.exit30
  %93 = call ptr (ptr, ...) @git_pathdup(ptr noundef nonnull @.str.172)
  store ptr %93, ptr @git_path_head_file.ret, align 8, !tbaa !4
  br label %git_path_head_file.exit32

git_path_head_file.exit32:                        ; preds = %_.exit30, %92
  %94 = phi ptr [ %93, %92 ], [ %91, %_.exit30 ]
  %95 = call i32 (ptr, ...) @error(ptr noundef %.0.i29, ptr noundef %94) #20
  br label %112

96:                                               ; preds = %84
  %bcmp.i = call i32 @bcmp(ptr noundef nonnull readonly dereferenceable(32) %5, ptr noundef nonnull dereferenceable(32) @is_null_oid.null_hash, i64 32)
  %.not.i33.not = icmp eq i32 %bcmp.i, 0
  br i1 %.not.i33.not, label %97, label %102

97:                                               ; preds = %96
  %98 = load i32, ptr @git_gettext_enabled, align 4, !tbaa !21
  %.not4.i34 = icmp eq i32 %98, 0
  br i1 %.not4.i34, label %_.exit36, label %99

99:                                               ; preds = %97
  %100 = call ptr @dcgettext(ptr noundef null, ptr noundef nonnull @.str.67, i32 noundef 5) #20
  br label %_.exit36

_.exit36:                                         ; preds = %97, %99
  %.0.i35 = phi ptr [ %100, %99 ], [ @.str.67, %97 ]
  %101 = call i32 (ptr, ...) @error(ptr noundef %.0.i35) #20
  br label %112

102:                                              ; preds = %96
  %103 = call fastcc i32 @rollback_is_safe()
  %.not13 = icmp eq i32 %103, 0
  br i1 %.not13, label %104, label %108

104:                                              ; preds = %102
  %105 = load i32, ptr @git_gettext_enabled, align 4, !tbaa !21
  %.not4.i37 = icmp eq i32 %105, 0
  br i1 %.not4.i37, label %_.exit39, label %106

106:                                              ; preds = %104
  %107 = call ptr @dcgettext(ptr noundef null, ptr noundef nonnull @.str.68, i32 noundef 5) #20
  br label %_.exit39

_.exit39:                                         ; preds = %104, %106
  %.0.i38 = phi ptr [ %107, %106 ], [ @.str.68, %104 ]
  call void (ptr, ...) @warning(ptr noundef %.0.i38) #20
  br label %110

108:                                              ; preds = %102
  %109 = call fastcc i32 @reset_merge(ptr noundef %5)
  %.not14 = icmp eq i32 %109, 0
  br i1 %.not14, label %110, label %112

110:                                              ; preds = %108, %_.exit39
  call void @strbuf_release(ptr noundef nonnull %6) #20
  %111 = call i32 @sequencer_remove_state(ptr noundef %1)
  br label %113

112:                                              ; preds = %108, %_.exit36, %git_path_head_file.exit32, %_.exit27
  call void @strbuf_release(ptr noundef nonnull %6) #20
  br label %113

113:                                              ; preds = %112, %110, %git_path_head_file.exit19, %rollback_single_pick.exit
  %.0 = phi i32 [ -1, %112 ], [ %111, %110 ], [ -1, %git_path_head_file.exit19 ], [ %.0.i, %rollback_single_pick.exit ]
  call void @llvm.lifetime.end.p0(i64 8, ptr nonnull %7) #20
  call void @llvm.lifetime.end.p0(i64 24, ptr nonnull %6) #20
  call void @llvm.lifetime.end.p0(i64 36, ptr nonnull %5) #20
  ret i32 %.0
}